target datalayout = "e-m:e-p270:32:32-p271:32:32-p272:64:64-i64:64-i128:128-f80:128-n8:16:32:64-S128"
target triple = "x86_64-pc-linux-gnu"

@progname = internal global ptr null, align 8
@do_wait = internal global i8 1, align 1
@sig = internal global i32 2, align 4
@pid_file = internal global [1024 x i8] zeroinitializer, align 16
@shutdown_mode = internal global i32 1, align 4
@.str.125 = private unnamed_addr constant [7 x i8] c" done\0A\00", align 1
@.str.142 = private unnamed_addr constant [46 x i8] c"%s: could not send stop signal (PID: %d): %m\0A\00", align 1
@.str.147 = private unnamed_addr constant [34 x i8] c"%s: PID file \22%s\22 does not exist\0A\00", align 1
@.str.148 = private unnamed_addr constant [20 x i8] c"Is server running?\0A\00", align 1
@.str.149 = private unnamed_addr constant [65 x i8] c"%s: cannot stop server; single-user server is running (PID: %d)\0A\00", align 1
@.str.150 = private unnamed_addr constant [22 x i8] c"server shutting down\0A\00", align 1
@.str.151 = private unnamed_addr constant [35 x i8] c"waiting for server to shut down...\00", align 1
@.str.152 = private unnamed_addr constant [9 x i8] c" failed\0A\00", align 1
@.str.153 = private unnamed_addr constant [31 x i8] c"%s: server does not shut down\0A\00", align 1
@.str.154 = private unnamed_addr constant [118 x i8] c"HINT: The \22-m fast\22 option immediately disconnects sessions rather than\0Awaiting for session-initiated disconnection.\0A\00", align 1
@.str.155 = private unnamed_addr constant [16 x i8] c"server stopped\0A\00", align 1

; Function Attrs: nounwind uwtable
define internal void @do_stop() #0 {
  %1 = alloca i32, align 4
  %2 = alloca i32, align 4
  call void @llvm.lifetime.start.p0(i64 4, ptr %1) #10
  %3 = call i32 @get_pgpid(i1 noundef zeroext false)
  store i32 %3, ptr %1, align 4
  %4 = load i32, ptr %1, align 4
  %5 = icmp eq i32 %4, 0
  br i1 %5, label %6, label %8

6:                                                ; preds = %0
  %7 = load ptr, ptr @progname, align 8
  call void (ptr, ...) @write_stderr(ptr noundef @.str.147, ptr noundef %7, ptr noundef @pid_file)
  call void (ptr, ...) @write_stderr(ptr noundef @.str.148)
  call void @exit(i32 noundef 1) #12
  unreachable

8:                                                ; preds = %0
  %9 = load i32, ptr %1, align 4
  %10 = icmp slt i32 %9, 0
  br i1 %10, label %11, label %16

11:                                               ; preds = %8
  %12 = load i32, ptr %1, align 4
  %13 = sub i32 0, %12
  store i32 %13, ptr %1, align 4
  %14 = load ptr, ptr @progname, align 8
  %15 = load i32, ptr %1, align 4
  call void (ptr, ...) @write_stderr(ptr noundef @.str.149, ptr noundef %14, i32 noundef %15)
  call void @exit(i32 noundef 1) #12
  unreachable

16:                                               ; preds = %8
  br label %17

17:                                               ; preds = %16
  %18 = load i32, ptr %1, align 4
  %19 = load i32, ptr @sig, align 4
  %20 = call i32 @kill(i32 noundef %18, i32 noundef %19) #10
  %21 = icmp ne i32 %20, 0
  br i1 %21, label %22, label %25

22:                                               ; preds = %17
  %23 = load ptr, ptr @progname, align 8
  %24 = load i32, ptr %1, align 4
  call void (ptr, ...) @write_stderr(ptr noundef @.str.142, ptr noundef %23, i32 noundef %24)
  call void @exit(i32 noundef 1) #12
  unreachable

25:                                               ; preds = %17
  %26 = load i8, ptr @do_wait, align 1, !range !6, !noundef !7
  %27 = trunc i8 %26 to i1
  br i1 %27, label %29, label %28

28:                                               ; preds = %25
  call void @print_msg(ptr noundef @.str.150)
  store i32 1, ptr %2, align 4
  br label %39

29:                                               ; preds = %25
  call void @print_msg(ptr noundef @.str.151)
  %30 = call zeroext i1 @wait_for_postmaster_stop()
  br i1 %30, label %37, label %31

31:                                               ; preds = %29
  call void @print_msg(ptr noundef @.str.152)
  %32 = load ptr, ptr @progname, align 8
  call void (ptr, ...) @write_stderr(ptr noundef @.str.153, ptr noundef %32)
  %33 = load i32, ptr @shutdown_mode, align 4
  %34 = icmp eq i32 %33, 0
  br i1 %34, label %35, label %36

35:                                               ; preds = %31
  call void (ptr, ...) @write_stderr(ptr noundef @.str.154)
  br label %36

36:                                               ; preds = %35, %31
  call void @exit(i32 noundef 1) #12
  unreachable

37:                                               ; preds = %29
  call void @print_msg(ptr noundef @.str.125)
  call void @print_msg(ptr noundef @.str.155)
  br label %38

38:                                               ; preds = %37
  store i32 0, ptr %2, align 4
  br label %39

39:                                               ; preds = %38, %28
  call void @llvm.lifetime.end.p0(i64 4, ptr %1) #10
  %40 = load i32, ptr %2, align 4
  switch i32 %40, label %42 [
    i32 0, label %41
    i32 1, label %41
  ]

41:                                               ; preds = %39, %39
  ret void

42:                                               ; preds = %39
  unreachable
}