; Function Attrs: nounwind uwtable
define internal fastcc void @do_stop() unnamed_addr #5 {
  %1 = tail call fastcc i32 @get_pgpid(i1 noundef zeroext false)
  %2 = icmp eq i32 %1, 0
  br i1 %2, label %3, label %5

3:                                                ; preds = %0
  %4 = load ptr, ptr @progname, align 8
  tail call void (ptr, ...) @write_stderr(ptr noundef nonnull @.str.147, ptr noundef %4, ptr noundef nonnull @pid_file)
  tail call void (ptr, ...) @write_stderr(ptr noundef nonnull @.str.148)
  tail call void @exit(i32 noundef 1) #20
  unreachable

5:                                                ; preds = %0
  %6 = icmp slt i32 %1, 0
  br i1 %6, label %7, label %10

7:                                                ; preds = %5
  %8 = sub i32 0, %1
  %9 = load ptr, ptr @progname, align 8
  tail call void (ptr, ...) @write_stderr(ptr noundef nonnull @.str.149, ptr noundef %9, i32 noundef %8)
  tail call void @exit(i32 noundef 1) #20
  unreachable

10:                                               ; preds = %5
  %11 = load i32, ptr @sig, align 4
  %12 = tail call i32 @kill(i32 noundef %1, i32 noundef %11) #17
  %.not = icmp eq i32 %12, 0
  br i1 %.not, label %15, label %13

13:                                               ; preds = %10
  %14 = load ptr, ptr @progname, align 8
  tail call void (ptr, ...) @write_stderr(ptr noundef nonnull @.str.142, ptr noundef %14, i32 noundef %1)
  tail call void @exit(i32 noundef 1) #20
  unreachable

15:                                               ; preds = %10
  %.b = load i1, ptr @do_wait, align 1
  %.b1.i = load i1, ptr @silent_mode, align 1
  br i1 %.b, label %16, label %20

16:                                               ; preds = %15
  br i1 %.b1.i, label %print_msg.exit, label %17

17:                                               ; preds = %16
  %18 = load ptr, ptr @stdout, align 8
  %19 = tail call i64 @fwrite(ptr nonnull @.str.150, i64 21, i64 1, ptr %18)
  br label %print_msg.exit.sink.split

20:                                               ; preds = %15
  br i1 %.b1.i, label %print_msg.exit7, label %21

21:                                               ; preds = %20
  %22 = load ptr, ptr @stdout, align 8
  %23 = tail call i64 @fwrite(ptr nonnull @.str.151, i64 34, i64 1, ptr %22)
  %24 = load ptr, ptr @stdout, align 8
  %25 = tail call i32 @fflush(ptr noundef %24)
  br label %print_msg.exit7

print_msg.exit7:                                  ; preds = %20, %21
  %26 = tail call fastcc zeroext i1 @wait_for_postmaster_stop()
  br i1 %26, label %33, label %27

27:                                               ; preds = %print_msg.exit7
  tail call fastcc void @print_msg(ptr noundef nonnull @.str.152)
  %28 = load ptr, ptr @progname, align 8
  tail call void (ptr, ...) @write_stderr(ptr noundef nonnull @.str.153, ptr noundef %28)
  %29 = load i32, ptr @shutdown_mode, align 4
  %30 = icmp eq i32 %29, 0
  br i1 %30, label %31, label %32

31:                                               ; preds = %27
  tail call void (ptr, ...) @write_stderr(ptr noundef nonnull @.str.154)
  br label %32

32:                                               ; preds = %31, %27
  tail call void @exit(i32 noundef 1) #20
  unreachable

33:                                               ; preds = %print_msg.exit7
  %.b1.i8 = load i1, ptr @silent_mode, align 1
  br i1 %.b1.i8, label %print_msg.exit, label %print_msg.exit9

print_msg.exit9:                                  ; preds = %33
  %34 = load ptr, ptr @stdout, align 8
  %35 = tail call i64 @fwrite(ptr nonnull @.str.125, i64 6, i64 1, ptr %34)
  %36 = load ptr, ptr @stdout, align 8
  %37 = tail call i32 @fflush(ptr noundef %36)
  %.b1.i10.pr = load i1, ptr @silent_mode, align 1
  br i1 %.b1.i10.pr, label %print_msg.exit, label %38

38:                                               ; preds = %print_msg.exit9
  %39 = load ptr, ptr @stdout, align 8
  %40 = tail call i64 @fwrite(ptr nonnull @.str.155, i64 15, i64 1, ptr %39)
  br label %print_msg.exit.sink.split

print_msg.exit.sink.split:                        ; preds = %17, %38
  %41 = load ptr, ptr @stdout, align 8
  %42 = tail call i32 @fflush(ptr noundef %41)
  br label %print_msg.exit

print_msg.exit:                                   ; preds = %print_msg.exit.sink.split, %33, %print_msg.exit9, %16
  ret void
}